target datalayout = "e-m:e-p270:32:32-p271:32:32-p272:64:64-i64:64-i128:128-f80:128-n8:16:32:64-S128"
target triple = "x86_64-pc-linux-gnu"

%struct.DASHContext = type { ptr, ptr, ptr, i32, i32, i32, i64, i64, i32, i32, i32, i32, ptr, i32, i64, i64, [100 x i8], i64, i64, [1024 x i8], ptr, ptr, ptr, ptr, ptr, ptr, ptr, i32, ptr, i32, i32, ptr, ptr, ptr, i32, i64, i32, ptr, i32, i32, i32, i32, i32, i32, i32, i32, i32, i32, i64, i64, i32, i64, i32, %struct.AVRational, %struct.AVRational, i64 }
%struct.AVRational = type { i32, i32 }

@.str.63 = private unnamed_addr constant [7 x i8] c"method\00", align 1
@.str.84 = private unnamed_addr constant [8 x i8] c"timeout\00", align 1
@.str.134 = private unnamed_addr constant [11 x i8] c"user_agent\00", align 1
@.str.135 = private unnamed_addr constant [18 x i8] c"multiple_requests\00", align 1

; Function Attrs: nounwind uwtable
define internal void @set_http_options(ptr noundef %0, ptr noundef %1) #0 {
  %3 = alloca ptr, align 8
  %4 = alloca ptr, align 8
  store ptr %0, ptr %3, align 8, !tbaa !233
  store ptr %1, ptr %4, align 8, !tbaa !26
  %5 = load ptr, ptr %4, align 8, !tbaa !26
  %6 = getelementptr inbounds nuw %struct.DASHContext, ptr %5, i32 0, i32 24
  %7 = load ptr, ptr %6, align 8, !tbaa !235
  %8 = icmp ne ptr %7, null
  br i1 %8, label %9, label %15

9:                                                ; preds = %2
  %10 = load ptr, ptr %3, align 8, !tbaa !233
  %11 = load ptr, ptr %4, align 8, !tbaa !26
  %12 = getelementptr inbounds nuw %struct.DASHContext, ptr %11, i32 0, i32 24
  %13 = load ptr, ptr %12, align 8, !tbaa !235
  %14 = call i32 @av_dict_set(ptr noundef %10, ptr noundef @.str.63, ptr noundef %13, i32 noundef 0)
  br label %15

15:                                               ; preds = %9, %2
  %16 = load ptr, ptr %3, align 8, !tbaa !233
  %17 = load ptr, ptr %4, align 8, !tbaa !26
  %18 = getelementptr inbounds nuw %struct.DASHContext, ptr %17, i32 0, i32 26
  %19 = load ptr, ptr %18, align 8, !tbaa !236
  %20 = call i32 @av_dict_copy(ptr noundef %16, ptr noundef %19, i32 noundef 0)
  %21 = load ptr, ptr %4, align 8, !tbaa !26
  %22 = getelementptr inbounds nuw %struct.DASHContext, ptr %21, i32 0, i32 25
  %23 = load ptr, ptr %22, align 8, !tbaa !237
  %24 = icmp ne ptr %23, null
  br i1 %24, label %25, label %31

25:                                               ; preds = %15
  %26 = load ptr, ptr %3, align 8, !tbaa !233
  %27 = load ptr, ptr %4, align 8, !tbaa !26
  %28 = getelementptr inbounds nuw %struct.DASHContext, ptr %27, i32 0, i32 25
  %29 = load ptr, ptr %28, align 8, !tbaa !237
  %30 = call i32 @av_dict_set(ptr noundef %26, ptr noundef @.str.134, ptr noundef %29, i32 noundef 0)
  br label %31

31:                                               ; preds = %25, %15
  %32 = load ptr, ptr %4, align 8, !tbaa !26
  %33 = getelementptr inbounds nuw %struct.DASHContext, ptr %32, i32 0, i32 29
  %34 = load i32, ptr %33, align 8, !tbaa !207
  %35 = icmp ne i32 %34, 0
  br i1 %35, label %36, label %39

36:                                               ; preds = %31
  %37 = load ptr, ptr %3, align 8, !tbaa !233
  %38 = call i32 @av_dict_set_int(ptr noundef %37, ptr noundef @.str.135, i64 noundef 1, i32 noundef 0)
  br label %39

39:                                               ; preds = %36, %31
  %40 = load ptr, ptr %4, align 8, !tbaa !26
  %41 = getelementptr inbounds nuw %struct.DASHContext, ptr %40, i32 0, i32 35
  %42 = load i64, ptr %41, align 8, !tbaa !238
  %43 = icmp sge i64 %42, 0
  br i1 %43, label %44, label %50

44:                                               ; preds = %39
  %45 = load ptr, ptr %3, align 8, !tbaa !233
  %46 = load ptr, ptr %4, align 8, !tbaa !26
  %47 = getelementptr inbounds nuw %struct.DASHContext, ptr %46, i32 0, i32 35
  %48 = load i64, ptr %47, align 8, !tbaa !238
  %49 = call i32 @av_dict_set_int(ptr noundef %45, ptr noundef @.str.84, i64 noundef %48, i32 noundef 0)
  br label %50

50:                                               ; preds = %44, %39
  ret void
}