; Function Attrs: nounwind uwtable
define internal fastcc void @set_http_options(ptr noundef nonnull %0, ptr noundef readonly captures(none) %1) unnamed_addr #0 {
  %3 = getelementptr inbounds nuw i8, ptr %1, i64 1280
  %4 = load ptr, ptr %3, align 8, !tbaa !130
  %.not = icmp eq ptr %4, null
  br i1 %.not, label %7, label %5

5:                                                ; preds = %2
  %6 = tail call i32 @av_dict_set(ptr noundef nonnull %0, ptr noundef nonnull @.str.63, ptr noundef nonnull %4, i32 noundef 0) #15
  br label %7

7:                                                ; preds = %5, %2
  %8 = getelementptr inbounds nuw i8, ptr %1, i64 1296
  %9 = load ptr, ptr %8, align 8, !tbaa !131
  %10 = tail call i32 @av_dict_copy(ptr noundef nonnull %0, ptr noundef %9, i32 noundef 0) #15
  %11 = getelementptr inbounds nuw i8, ptr %1, i64 1288
  %12 = load ptr, ptr %11, align 8, !tbaa !132
  %.not15 = icmp eq ptr %12, null
  br i1 %.not15, label %15, label %13

13:                                               ; preds = %7
  %14 = tail call i32 @av_dict_set(ptr noundef nonnull %0, ptr noundef nonnull @.str.134, ptr noundef nonnull %12, i32 noundef 0) #15
  br label %15

15:                                               ; preds = %13, %7
  %16 = getelementptr inbounds nuw i8, ptr %1, i64 1320
  %17 = load i32, ptr %16, align 8, !tbaa !133
  %.not16 = icmp eq i32 %17, 0
  br i1 %.not16, label %20, label %18

18:                                               ; preds = %15
  %19 = tail call i32 @av_dict_set_int(ptr noundef nonnull %0, ptr noundef nonnull @.str.135, i64 noundef 1, i32 noundef 0) #15
  br label %20

20:                                               ; preds = %18, %15
  %21 = getelementptr inbounds nuw i8, ptr %1, i64 1360
  %22 = load i64, ptr %21, align 8, !tbaa !134
  %23 = icmp sgt i64 %22, -1
  br i1 %23, label %24, label %26

24:                                               ; preds = %20
  %25 = tail call i32 @av_dict_set_int(ptr noundef nonnull %0, ptr noundef nonnull @.str.84, i64 noundef %22, i32 noundef 0) #15
  br label %26

26:                                               ; preds = %24, %20
  ret void
}